; Function Attrs: nounwind uwtable
define ptr @l_Lean_Meta_Grind_Arith_Cutsat_DvdCnstr_getSolutions_x3f___lambda__1___boxed(ptr noundef %0, ptr noundef %1, ptr noundef %2, ptr noundef %3, ptr noundef %4, ptr noundef %5, ptr noundef %6, ptr noundef %7, ptr noundef %8, ptr noundef %9, ptr noundef %10, ptr noundef %11, ptr noundef %12, ptr noundef %13, ptr noundef %14, ptr noundef %15) local_unnamed_addr #1 {
  %17 = ptrtoint ptr %5 to i64
  %18 = and i64 %17, 1
  %.not = icmp eq i64 %18, 0
  br i1 %.not, label %19, label %lean_dec.exit43

19:                                               ; preds = %16
  %20 = load i32, ptr %5, align 4, !tbaa !6
  %21 = icmp sgt i32 %20, 1
  br i1 %21, label %22, label %24, !prof !5

22:                                               ; preds = %19
  %23 = add nsw i32 %20, -1
  store i32 %23, ptr %5, align 4, !tbaa !6
  br label %lean_dec.exit43

24:                                               ; preds = %19
  %.not.i = icmp eq i32 %20, 0
  br i1 %.not.i, label %lean_dec.exit43, label %25

25:                                               ; preds = %24
  tail call void @lean_dec_ref_cold(ptr noundef nonnull %5) #6
  br label %lean_dec.exit43

lean_dec.exit43:                                  ; preds = %25, %24, %22, %16
  %26 = tail call ptr @l_Lean_Meta_Grind_Arith_Cutsat_DvdCnstr_getSolutions_x3f___lambda__1(ptr noundef %0, ptr noundef %1, ptr noundef %2, ptr noundef %3, ptr poison, i8 zeroext poison, ptr poison, ptr poison, ptr poison, ptr poison, ptr poison, ptr poison, ptr poison, ptr poison, ptr poison, ptr noundef %15)
  %27 = ptrtoint ptr %14 to i64
  %28 = and i64 %27, 1
  %.not70 = icmp eq i64 %28, 0
  br i1 %.not70, label %29, label %lean_dec.exit42

29:                                               ; preds = %lean_dec.exit43
  %30 = load i32, ptr %14, align 4, !tbaa !6
  %31 = icmp sgt i32 %30, 1
  br i1 %31, label %32, label %34, !prof !5

32:                                               ; preds = %29
  %33 = add nsw i32 %30, -1
  store i32 %33, ptr %14, align 4, !tbaa !6
  br label %lean_dec.exit42

34:                                               ; preds = %29
  %.not.i44 = icmp eq i32 %30, 0
  br i1 %.not.i44, label %lean_dec.exit42, label %35

35:                                               ; preds = %34
  tail call void @lean_dec_ref_cold(ptr noundef nonnull %14) #6
  br label %lean_dec.exit42

lean_dec.exit42:                                  ; preds = %35, %34, %32, %lean_dec.exit43
  %36 = ptrtoint ptr %13 to i64
  %37 = and i64 %36, 1
  %.not71 = icmp eq i64 %37, 0
  br i1 %.not71, label %38, label %lean_dec.exit41

38:                                               ; preds = %lean_dec.exit42
  %39 = load i32, ptr %13, align 4, !tbaa !6
  %40 = icmp sgt i32 %39, 1
  br i1 %40, label %41, label %43, !prof !5

41:                                               ; preds = %38
  %42 = add nsw i32 %39, -1
  store i32 %42, ptr %13, align 4, !tbaa !6
  br label %lean_dec.exit41

43:                                               ; preds = %38
  %.not.i46 = icmp eq i32 %39, 0
  br i1 %.not.i46, label %lean_dec.exit41, label %44

44:                                               ; preds = %43
  tail call void @lean_dec_ref_cold(ptr noundef nonnull %13) #6
  br label %lean_dec.exit41

lean_dec.exit41:                                  ; preds = %44, %43, %41, %lean_dec.exit42
  %45 = ptrtoint ptr %12 to i64
  %46 = and i64 %45, 1
  %.not72 = icmp eq i64 %46, 0
  br i1 %.not72, label %47, label %lean_dec.exit40

47:                                               ; preds = %lean_dec.exit41
  %48 = load i32, ptr %12, align 4, !tbaa !6
  %49 = icmp sgt i32 %48, 1
  br i1 %49, label %50, label %52, !prof !5

50:                                               ; preds = %47
  %51 = add nsw i32 %48, -1
  store i32 %51, ptr %12, align 4, !tbaa !6
  br label %lean_dec.exit40

52:                                               ; preds = %47
  %.not.i48 = icmp eq i32 %48, 0
  br i1 %.not.i48, label %lean_dec.exit40, label %53

53:                                               ; preds = %52
  tail call void @lean_dec_ref_cold(ptr noundef nonnull %12) #6
  br label %lean_dec.exit40

lean_dec.exit40:                                  ; preds = %53, %52, %50, %lean_dec.exit41
  %54 = ptrtoint ptr %11 to i64
  %55 = and i64 %54, 1
  %.not73 = icmp eq i64 %55, 0
  br i1 %.not73, label %56, label %lean_dec.exit39

56:                                               ; preds = %lean_dec.exit40
  %57 = load i32, ptr %11, align 4, !tbaa !6
  %58 = icmp sgt i32 %57, 1
  br i1 %58, label %59, label %61, !prof !5

59:                                               ; preds = %56
  %60 = add nsw i32 %57, -1
  store i32 %60, ptr %11, align 4, !tbaa !6
  br label %lean_dec.exit39

61:                                               ; preds = %56
  %.not.i50 = icmp eq i32 %57, 0
  br i1 %.not.i50, label %lean_dec.exit39, label %62

62:                                               ; preds = %61
  tail call void @lean_dec_ref_cold(ptr noundef nonnull %11) #6
  br label %lean_dec.exit39

lean_dec.exit39:                                  ; preds = %62, %61, %59, %lean_dec.exit40
  %63 = ptrtoint ptr %10 to i64
  %64 = and i64 %63, 1
  %.not74 = icmp eq i64 %64, 0
  br i1 %.not74, label %65, label %lean_dec.exit38

65:                                               ; preds = %lean_dec.exit39
  %66 = load i32, ptr %10, align 4, !tbaa !6
  %67 = icmp sgt i32 %66, 1
  br i1 %67, label %68, label %70, !prof !5

68:                                               ; preds = %65
  %69 = add nsw i32 %66, -1
  store i32 %69, ptr %10, align 4, !tbaa !6
  br label %lean_dec.exit38

70:                                               ; preds = %65
  %.not.i52 = icmp eq i32 %66, 0
  br i1 %.not.i52, label %lean_dec.exit38, label %71

71:                                               ; preds = %70
  tail call void @lean_dec_ref_cold(ptr noundef nonnull %10) #6
  br label %lean_dec.exit38

lean_dec.exit38:                                  ; preds = %71, %70, %68, %lean_dec.exit39
  %72 = ptrtoint ptr %9 to i64
  %73 = and i64 %72, 1
  %.not75 = icmp eq i64 %73, 0
  br i1 %.not75, label %74, label %lean_dec.exit37

74:                                               ; preds = %lean_dec.exit38
  %75 = load i32, ptr %9, align 4, !tbaa !6
  %76 = icmp sgt i32 %75, 1
  br i1 %76, label %77, label %79, !prof !5

77:                                               ; preds = %74
  %78 = add nsw i32 %75, -1
  store i32 %78, ptr %9, align 4, !tbaa !6
  br label %lean_dec.exit37

79:                                               ; preds = %74
  %.not.i54 = icmp eq i32 %75, 0
  br i1 %.not.i54, label %lean_dec.exit37, label %80

80:                                               ; preds = %79
  tail call void @lean_dec_ref_cold(ptr noundef nonnull %9) #6
  br label %lean_dec.exit37

lean_dec.exit37:                                  ; preds = %80, %79, %77, %lean_dec.exit38
  %81 = ptrtoint ptr %8 to i64
  %82 = and i64 %81, 1
  %.not76 = icmp eq i64 %82, 0
  br i1 %.not76, label %83, label %lean_dec.exit36

83:                                               ; preds = %lean_dec.exit37
  %84 = load i32, ptr %8, align 4, !tbaa !6
  %85 = icmp sgt i32 %84, 1
  br i1 %85, label %86, label %88, !prof !5

86:                                               ; preds = %83
  %87 = add nsw i32 %84, -1
  store i32 %87, ptr %8, align 4, !tbaa !6
  br label %lean_dec.exit36

88:                                               ; preds = %83
  %.not.i56 = icmp eq i32 %84, 0
  br i1 %.not.i56, label %lean_dec.exit36, label %89

89:                                               ; preds = %88
  tail call void @lean_dec_ref_cold(ptr noundef nonnull %8) #6
  br label %lean_dec.exit36

lean_dec.exit36:                                  ; preds = %89, %88, %86, %lean_dec.exit37
  %90 = ptrtoint ptr %7 to i64
  %91 = and i64 %90, 1
  %.not77 = icmp eq i64 %91, 0
  br i1 %.not77, label %92, label %lean_dec.exit35

92:                                               ; preds = %lean_dec.exit36
  %93 = load i32, ptr %7, align 4, !tbaa !6
  %94 = icmp sgt i32 %93, 1
  br i1 %94, label %95, label %97, !prof !5

95:                                               ; preds = %92
  %96 = add nsw i32 %93, -1
  store i32 %96, ptr %7, align 4, !tbaa !6
  br label %lean_dec.exit35

97:                                               ; preds = %92
  %.not.i58 = icmp eq i32 %93, 0
  br i1 %.not.i58, label %lean_dec.exit35, label %98

98:                                               ; preds = %97
  tail call void @lean_dec_ref_cold(ptr noundef nonnull %7) #6
  br label %lean_dec.exit35

lean_dec.exit35:                                  ; preds = %98, %97, %95, %lean_dec.exit36
  %99 = ptrtoint ptr %6 to i64
  %100 = and i64 %99, 1
  %.not78 = icmp eq i64 %100, 0
  br i1 %.not78, label %101, label %lean_dec.exit34

101:                                              ; preds = %lean_dec.exit35
  %102 = load i32, ptr %6, align 4, !tbaa !6
  %103 = icmp sgt i32 %102, 1
  br i1 %103, label %104, label %106, !prof !5

104:                                              ; preds = %101
  %105 = add nsw i32 %102, -1
  store i32 %105, ptr %6, align 4, !tbaa !6
  br label %lean_dec.exit34

106:                                              ; preds = %101
  %.not.i60 = icmp eq i32 %102, 0
  br i1 %.not.i60, label %lean_dec.exit34, label %107

107:                                              ; preds = %106
  tail call void @lean_dec_ref_cold(ptr noundef nonnull %6) #6
  br label %lean_dec.exit34

lean_dec.exit34:                                  ; preds = %107, %106, %104, %lean_dec.exit35
  %108 = ptrtoint ptr %4 to i64
  %109 = and i64 %108, 1
  %.not79 = icmp eq i64 %109, 0
  br i1 %.not79, label %110, label %lean_dec.exit33

110:                                              ; preds = %lean_dec.exit34
  %111 = load i32, ptr %4, align 4, !tbaa !6
  %112 = icmp sgt i32 %111, 1
  br i1 %112, label %113, label %115, !prof !5

113:                                              ; preds = %110
  %114 = add nsw i32 %111, -1
  store i32 %114, ptr %4, align 4, !tbaa !6
  br label %lean_dec.exit33

115:                                              ; preds = %110
  %.not.i62 = icmp eq i32 %111, 0
  br i1 %.not.i62, label %lean_dec.exit33, label %116

116:                                              ; preds = %115
  tail call void @lean_dec_ref_cold(ptr noundef nonnull %4) #6
  br label %lean_dec.exit33

lean_dec.exit33:                                  ; preds = %116, %115, %113, %lean_dec.exit34
  %117 = ptrtoint ptr %3 to i64
  %118 = and i64 %117, 1
  %.not80 = icmp eq i64 %118, 0
  br i1 %.not80, label %119, label %lean_dec.exit32

119:                                              ; preds = %lean_dec.exit33
  %120 = load i32, ptr %3, align 4, !tbaa !6
  %121 = icmp sgt i32 %120, 1
  br i1 %121, label %122, label %124, !prof !5

122:                                              ; preds = %119
  %123 = add nsw i32 %120, -1
  store i32 %123, ptr %3, align 4, !tbaa !6
  br label %lean_dec.exit32

124:                                              ; preds = %119
  %.not.i64 = icmp eq i32 %120, 0
  br i1 %.not.i64, label %lean_dec.exit32, label %125

125:                                              ; preds = %124
  tail call void @lean_dec_ref_cold(ptr noundef nonnull %3) #6
  br label %lean_dec.exit32

lean_dec.exit32:                                  ; preds = %125, %124, %122, %lean_dec.exit33
  %126 = ptrtoint ptr %2 to i64
  %127 = and i64 %126, 1
  %.not81 = icmp eq i64 %127, 0
  br i1 %.not81, label %128, label %lean_dec.exit31

128:                                              ; preds = %lean_dec.exit32
  %129 = load i32, ptr %2, align 4, !tbaa !6
  %130 = icmp sgt i32 %129, 1
  br i1 %130, label %131, label %133, !prof !5

131:                                              ; preds = %128
  %132 = add nsw i32 %129, -1
  store i32 %132, ptr %2, align 4, !tbaa !6
  br label %lean_dec.exit31

133:                                              ; preds = %128
  %.not.i66 = icmp eq i32 %129, 0
  br i1 %.not.i66, label %lean_dec.exit31, label %134

134:                                              ; preds = %133
  tail call void @lean_dec_ref_cold(ptr noundef nonnull %2) #6
  br label %lean_dec.exit31

lean_dec.exit31:                                  ; preds = %134, %133, %131, %lean_dec.exit32
  %135 = ptrtoint ptr %1 to i64
  %136 = and i64 %135, 1
  %.not82 = icmp eq i64 %136, 0
  br i1 %.not82, label %137, label %lean_dec.exit

137:                                              ; preds = %lean_dec.exit31
  %138 = load i32, ptr %1, align 4, !tbaa !6
  %139 = icmp sgt i32 %138, 1
  br i1 %139, label %140, label %142, !prof !5

140:                                              ; preds = %137
  %141 = add nsw i32 %138, -1
  store i32 %141, ptr %1, align 4, !tbaa !6
  br label %lean_dec.exit

142:                                              ; preds = %137
  %.not.i68 = icmp eq i32 %138, 0
  br i1 %.not.i68, label %lean_dec.exit, label %143

143:                                              ; preds = %142
  tail call void @lean_dec_ref_cold(ptr noundef nonnull %1) #6
  br label %lean_dec.exit

lean_dec.exit:                                    ; preds = %143, %142, %140, %lean_dec.exit31
  ret ptr %26
}